; Function Attrs: mustprogress uwtable
define void @_ZN7rocksdb18SstFileManagerImpl17ReserveDiskBufferEmRKNSt7__cxx1112basic_stringIcSt11char_traitsIcESaIcEEE(ptr noundef nonnull align 8 dereferenceable(856) %0, i64 noundef %1, ptr noundef nonnull align 8 dereferenceable(32) %2) local_unnamed_addr #4 align 2 personality ptr @__gxx_personality_v0 {
  %4 = getelementptr inbounds nuw i8, ptr %0, i64 56
  tail call void @_ZN7rocksdb4port5Mutex4LockEv(ptr noundef nonnull align 8 dereferenceable(40) %4)
  %5 = getelementptr inbounds nuw i8, ptr %0, i64 792
  %6 = load i64, ptr %5, align 8, !tbaa !206
  %7 = add i64 %6, %1
  store i64 %7, ptr %5, align 8, !tbaa !206
  %8 = getelementptr inbounds nuw i8, ptr %0, i64 752
  %9 = load i64, ptr %8, align 8, !tbaa !16
  %10 = icmp eq i64 %9, 0
  br i1 %10, label %11, label %_ZNSt7__cxx1112basic_stringIcSt11char_traitsIcESaIcEEaSERKS4_.exit

11:                                               ; preds = %3
  %12 = getelementptr inbounds nuw i8, ptr %0, i64 744
  invoke void @_ZNSt7__cxx1112basic_stringIcSt11char_traitsIcESaIcEE9_M_assignERKS4_(ptr noundef nonnull align 8 dereferenceable(32) %12, ptr noundef nonnull align 8 dereferenceable(32) %2)
          to label %_ZNSt7__cxx1112basic_stringIcSt11char_traitsIcESaIcEEaSERKS4_.exit unwind label %13

13:                                               ; preds = %11
  %14 = landingpad { ptr, i32 }
          cleanup
  invoke void @_ZN7rocksdb4port5Mutex6UnlockEv(ptr noundef nonnull align 8 dereferenceable(40) %4)
          to label %_ZN7rocksdb9MutexLockD2Ev.exit unwind label %15

15:                                               ; preds = %13
  %16 = landingpad { ptr, i32 }
          catch ptr null
  %17 = extractvalue { ptr, i32 } %16, 0
  tail call void @__clang_call_terminate(ptr %17) #24
  unreachable

_ZN7rocksdb9MutexLockD2Ev.exit:                   ; preds = %13
  resume { ptr, i32 } %14

_ZNSt7__cxx1112basic_stringIcSt11char_traitsIcESaIcEEaSERKS4_.exit: ; preds = %11, %3
  invoke void @_ZN7rocksdb4port5Mutex6UnlockEv(ptr noundef nonnull align 8 dereferenceable(40) %4)
          to label %_ZN7rocksdb9MutexLockD2Ev.exit4 unwind label %18

18:                                               ; preds = %_ZNSt7__cxx1112basic_stringIcSt11char_traitsIcESaIcEEaSERKS4_.exit
  %19 = landingpad { ptr, i32 }
          catch ptr null
  %20 = extractvalue { ptr, i32 } %19, 0
  tail call void @__clang_call_terminate(ptr %20) #24
  unreachable

_ZN7rocksdb9MutexLockD2Ev.exit4:                  ; preds = %_ZNSt7__cxx1112basic_stringIcSt11char_traitsIcESaIcEEaSERKS4_.exit
  ret void
}